target datalayout = "e-m:e-p270:32:32-p271:32:32-p272:64:64-i64:64-i128:128-f80:128-n8:16:32:64-S128"
target triple = "x86_64-pc-linux-gnu"

@global_mask = internal global i64 8192, align 8
@.str = private unnamed_addr constant [6 x i8] c"MASK:\00", align 1
@.str.1 = private unnamed_addr constant [8 x i8] c"nombstr\00", align 1
@.str.2 = private unnamed_addr constant [5 x i8] c"pkix\00", align 1
@.str.3 = private unnamed_addr constant [9 x i8] c"utf8only\00", align 1
@.str.4 = private unnamed_addr constant [8 x i8] c"default\00", align 1

; Function Attrs: nounwind uwtable
define void @ASN1_STRING_set_default_mask(i64 noundef %0) #0 {
  %2 = alloca i64, align 8
  store i64 %0, ptr %2, align 8, !tbaa !3
  %3 = load i64, ptr %2, align 8, !tbaa !3
  store i64 %3, ptr @global_mask, align 8, !tbaa !3
  ret void
}

; Function Attrs: nounwind uwtable
define i32 @ASN1_STRING_set_default_mask_asc(ptr noundef %0) #0 {
  %2 = alloca i32, align 4
  %3 = alloca ptr, align 8
  %4 = alloca i64, align 8
  %5 = alloca ptr, align 8
  %6 = alloca i32, align 4
  store ptr %0, ptr %3, align 8, !tbaa !7
  call void @llvm.lifetime.start.p0(i64 8, ptr %4) #6
  call void @llvm.lifetime.start.p0(i64 8, ptr %5) #6
  %7 = load ptr, ptr %3, align 8, !tbaa !7
  %8 = call i32 @strncmp(ptr noundef %7, ptr noundef @.str, i64 noundef 5) #7
  %9 = icmp eq i32 %8, 0
  br i1 %9, label %10, label %13

10:                                               ; preds = %1
  %11 = load ptr, ptr %3, align 8, !tbaa !7
  %12 = getelementptr inbounds nuw i8, ptr %11, i64 5
  store ptr %12, ptr %3, align 8, !tbaa !7
  br i1 true, label %14, label %28

13:                                               ; preds = %1
  br i1 false, label %14, label %28

14:                                               ; preds = %13, %10
  %15 = load ptr, ptr %3, align 8, !tbaa !7
  %16 = load i8, ptr %15, align 1, !tbaa !10
  %17 = sext i8 %16 to i32
  %18 = icmp eq i32 %17, 0
  br i1 %18, label %19, label %20

19:                                               ; preds = %14
  store i32 0, ptr %2, align 4
  store i32 1, ptr %6, align 4
  br label %55

20:                                               ; preds = %14
  %21 = load ptr, ptr %3, align 8, !tbaa !7
  %22 = call i64 @strtoul(ptr noundef %21, ptr noundef %5, i32 noundef 0) #6
  store i64 %22, ptr %4, align 8, !tbaa !3
  %23 = load ptr, ptr %5, align 8, !tbaa !7
  %24 = load i8, ptr %23, align 1, !tbaa !10
  %25 = icmp ne i8 %24, 0
  br i1 %25, label %26, label %27

26:                                               ; preds = %20
  store i32 0, ptr %2, align 4
  store i32 1, ptr %6, align 4
  br label %55

27:                                               ; preds = %20
  br label %53

28:                                               ; preds = %13, %10
  %29 = load ptr, ptr %3, align 8, !tbaa !7
  %30 = call i32 @strcmp(ptr noundef %29, ptr noundef @.str.1) #7
  %31 = icmp eq i32 %30, 0
  br i1 %31, label %32, label %33

32:                                               ; preds = %28
  store i64 -10241, ptr %4, align 8, !tbaa !3
  br label %52

33:                                               ; preds = %28
  %34 = load ptr, ptr %3, align 8, !tbaa !7
  %35 = call i32 @strcmp(ptr noundef %34, ptr noundef @.str.2) #7
  %36 = icmp eq i32 %35, 0
  br i1 %36, label %37, label %38

37:                                               ; preds = %33
  store i64 -5, ptr %4, align 8, !tbaa !3
  br label %51

38:                                               ; preds = %33
  %39 = load ptr, ptr %3, align 8, !tbaa !7
  %40 = call i32 @strcmp(ptr noundef %39, ptr noundef @.str.3) #7
  %41 = icmp eq i32 %40, 0
  br i1 %41, label %42, label %43

42:                                               ; preds = %38
  store i64 8192, ptr %4, align 8, !tbaa !3
  br label %50

43:                                               ; preds = %38
  %44 = load ptr, ptr %3, align 8, !tbaa !7
  %45 = call i32 @strcmp(ptr noundef %44, ptr noundef @.str.4) #7
  %46 = icmp eq i32 %45, 0
  br i1 %46, label %47, label %48

47:                                               ; preds = %43
  store i64 4294967295, ptr %4, align 8, !tbaa !3
  br label %49

48:                                               ; preds = %43
  store i32 0, ptr %2, align 4
  store i32 1, ptr %6, align 4
  br label %55

49:                                               ; preds = %47
  br label %50

50:                                               ; preds = %49, %42
  br label %51

51:                                               ; preds = %50, %37
  br label %52

52:                                               ; preds = %51, %32
  br label %53

53:                                               ; preds = %52, %27
  %54 = load i64, ptr %4, align 8, !tbaa !3
  call void @ASN1_STRING_set_default_mask(i64 noundef %54)
  store i32 1, ptr %2, align 4
  store i32 1, ptr %6, align 4
  br label %55

55:                                               ; preds = %53, %48, %26, %19
  call void @llvm.lifetime.end.p0(i64 8, ptr %5) #6
  call void @llvm.lifetime.end.p0(i64 8, ptr %4) #6
  %56 = load i32, ptr %2, align 4
  ret i32 %56
}