; Function Attrs: mustprogress nofree nounwind willreturn uwtable
define range(i32 0, 2) i32 @ASN1_STRING_set_default_mask_asc(ptr noundef %0) local_unnamed_addr #2 {
  %2 = alloca ptr, align 8
  call void @llvm.lifetime.start.p0(i64 8, ptr nonnull %2) #11
  %3 = tail call i32 @strncmp(ptr noundef nonnull dereferenceable(1) %0, ptr noundef nonnull dereferenceable(6) @.str, i64 noundef 5) #12
  %4 = icmp eq i32 %3, 0
  br i1 %4, label %5, label %13

5:                                                ; preds = %1
  %6 = getelementptr inbounds nuw i8, ptr %0, i64 5
  %7 = load i8, ptr %6, align 1, !tbaa !7
  %8 = icmp eq i8 %7, 0
  br i1 %8, label %26, label %9

9:                                                ; preds = %5
  %10 = call i64 @strtoul(ptr noundef nonnull %6, ptr noundef nonnull %2, i32 noundef 0) #11
  %11 = load ptr, ptr %2, align 8, !tbaa !8
  %12 = load i8, ptr %11, align 1, !tbaa !7
  %.not = icmp eq i8 %12, 0
  br i1 %.not, label %25, label %26

13:                                               ; preds = %1
  %14 = tail call i32 @strcmp(ptr noundef nonnull dereferenceable(1) %0, ptr noundef nonnull dereferenceable(8) @.str.1) #12
  %15 = icmp eq i32 %14, 0
  br i1 %15, label %25, label %16

16:                                               ; preds = %13
  %17 = tail call i32 @strcmp(ptr noundef nonnull dereferenceable(1) %0, ptr noundef nonnull dereferenceable(5) @.str.2) #12
  %18 = icmp eq i32 %17, 0
  br i1 %18, label %25, label %19

19:                                               ; preds = %16
  %20 = tail call i32 @strcmp(ptr noundef nonnull dereferenceable(1) %0, ptr noundef nonnull dereferenceable(9) @.str.3) #12
  %21 = icmp eq i32 %20, 0
  br i1 %21, label %25, label %22

22:                                               ; preds = %19
  %23 = tail call i32 @strcmp(ptr noundef nonnull dereferenceable(1) %0, ptr noundef nonnull dereferenceable(8) @.str.4) #12
  %24 = icmp eq i32 %23, 0
  br i1 %24, label %25, label %26

25:                                               ; preds = %22, %19, %16, %13, %9
  %.0 = phi i64 [ %10, %9 ], [ -10241, %13 ], [ -5, %16 ], [ 8192, %19 ], [ 4294967295, %22 ]
  store i64 %.0, ptr @global_mask, align 8, !tbaa !3
  br label %26

26:                                               ; preds = %22, %9, %5, %25
  %.09 = phi i32 [ 1, %25 ], [ 0, %5 ], [ 0, %9 ], [ 0, %22 ]
  call void @llvm.lifetime.end.p0(i64 8, ptr nonnull %2) #11
  ret i32 %.09
}